(dp0
(S'0000010000'
p1
I0
tp2
F16.846754187230527
s(S'0010000000'
p3
I2
tp4
F-34.112357989300854
s(S'0000000100'
p5
I2
tp6
F5.557864680170025
s(S'1000000000'
p7
I1
tp8
F-29.679369956181223
s(S'1000000000'
p9
I2
tp10
F-1.725393684079997
s(S'0000000001'
p11
I0
tp12
F7.262206720590414
s(S'0100000000'
p13
I2
tp14
I-200
s(S'0000000010'
p15
I1
tp16
F3.783106694503465
s(S'1000000000'
p17
I0
tp18
F5.561882830537047
s(S'0000001000'
p19
I2
tp20
F14.52228093030792
s(S'0001000000'
p21
I2
tp22
I-200
s(S'0100000000'
p23
I1
tp24
F12.962300262607272
s(S'0000000000'
p25
I2
tp26
F-41.11369899436226
s(S'0000100000'
p27
I1
tp28
F13.8321911521881
s(S'0000000000'
p29
I1
tp30
F-12.85436663073676
s(S'0001000000'
p31
I0
tp32
F16.801124942401874
s(S'0000000000'
p33
I0
tp34
F-38.80127010410531
s(S'0010000000'
p35
I0
tp36
F14.633520102009841
s(S'0001000000'
p37
I1
tp38
I-200
s(S'0010000000'
p39
I1
tp40
F11.919253326776154
s(S'0100000000'
p41
I0
tp42
F12.908042784817253
s.