(dp0
(S'0000010000'
p1
I0
tp2
F17.610820775940805
s(S'0010000000'
p3
I2
tp4
F-34.112357989300854
s(S'0000000100'
p5
I2
tp6
F5.557864680170025
s(S'1000000000'
p7
I1
tp8
F-29.679369956181223
s(S'1000000000'
p9
I2
tp10
F15.730227933672209
s(S'0000000001'
p11
I0
tp12
F7.262206720590414
s(S'0100000000'
p13
I2
tp14
I-200
s(S'0000000010'
p15
I1
tp16
F3.783106694503465
s(S'1000000000'
p17
I0
tp18
F17.474748303141034
s(S'0000001000'
p19
I2
tp20
F13.193180623958916
s(S'0001000000'
p21
I2
tp22
I-200
s(S'0100000000'
p23
I1
tp24
F16.17742009250956
s(S'0000100000'
p25
I1
tp26
F13.221935012169457
s(S'0000000000'
p27
I1
tp28
F13.624341297339738
s(S'0001000000'
p29
I0
tp30
F16.162850238034935
s(S'0010000000'
p31
I0
tp32
F15.92611399602196
s(S'0001000000'
p33
I1
tp34
I-200
s(S'0010000000'
p35
I1
tp36
F14.488769602008901
s(S'0100000000'
p37
I0
tp38
F18.099701915630554
s.