(dp0
(S'0000010000'
p1
I0
tp2
F15.791287459180786
s(S'0000000010'
p3
I0
tp4
F12.12807471809291
s(S'0100000000'
p5
I1
tp6
F2.0665931021240844
s(S'1000000000'
p7
I0
tp8
F15.735264389573219
s(S'0000000100'
p9
I1
tp10
F4.731050115433955
s(S'0000001000'
p11
I1
tp12
F2.195512150393788
s(S'0000000001'
p13
I1
tp14
F6.361055538577824
s(S'0000100000'
p15
I1
tp16
F6.419359906687834
s(S'0000000000'
p17
I1
tp18
F-37.725651596628296
s(S'0001000000'
p19
I0
tp20
F11.813361172123285
s(S'0000000000'
p21
I0
tp22
F15.326251142564955
s(S'0010000000'
p23
I1
tp24
F4.401500151925919
s(S'0000000000'
p25
I2
tp26
F8.111279453534204
s.